target datalayout = "e-m:e-p270:32:32-p271:32:32-p272:64:64-i64:64-i128:128-f80:128-n8:16:32:64-S128"
target triple = "x86_64-pc-linux-gnu"

@H5_libinit_g = external global i8, align 1
@H5_libterm_g = external global i8, align 1
@H5T_C_S1_g = external global i64, align 8

; Function Attrs: nounwind uwtable
define i32 @H5LTset_attribute_string(i64 noundef %0, ptr noundef %1, ptr noundef %2, ptr noundef %3) #0 {
  %5 = alloca i32, align 4
  %6 = alloca i64, align 8
  %7 = alloca ptr, align 8
  %8 = alloca ptr, align 8
  %9 = alloca ptr, align 8
  %10 = alloca i64, align 8
  %11 = alloca i64, align 8
  %12 = alloca i64, align 8
  %13 = alloca i64, align 8
  %14 = alloca i32, align 4
  %15 = alloca i64, align 8
  %16 = alloca i32, align 4
  store i64 %0, ptr %6, align 8, !tbaa !3
  store ptr %1, ptr %7, align 8, !tbaa !7
  store ptr %2, ptr %8, align 8, !tbaa !7
  store ptr %3, ptr %9, align 8, !tbaa !7
  call void @llvm.lifetime.start.p0(i64 8, ptr %10) #11
  call void @llvm.lifetime.start.p0(i64 8, ptr %11) #11
  call void @llvm.lifetime.start.p0(i64 8, ptr %12) #11
  call void @llvm.lifetime.start.p0(i64 8, ptr %13) #11
  call void @llvm.lifetime.start.p0(i64 4, ptr %14) #11
  call void @llvm.lifetime.start.p0(i64 8, ptr %15) #11
  %17 = load ptr, ptr %7, align 8, !tbaa !7
  %18 = icmp eq ptr %17, null
  br i1 %18, label %19, label %20

19:                                               ; preds = %4
  store i32 -1, ptr %5, align 4
  store i32 1, ptr %16, align 4
  br label %130

20:                                               ; preds = %4
  %21 = load ptr, ptr %8, align 8, !tbaa !7
  %22 = icmp eq ptr %21, null
  br i1 %22, label %23, label %24

23:                                               ; preds = %20
  store i32 -1, ptr %5, align 4
  store i32 1, ptr %16, align 4
  br label %130

24:                                               ; preds = %20
  %25 = load ptr, ptr %9, align 8, !tbaa !7
  %26 = icmp eq ptr %25, null
  br i1 %26, label %27, label %28

27:                                               ; preds = %24
  store i32 -1, ptr %5, align 4
  store i32 1, ptr %16, align 4
  br label %130

28:                                               ; preds = %24
  %29 = load i64, ptr %6, align 8, !tbaa !3
  %30 = load ptr, ptr %7, align 8, !tbaa !7
  %31 = call i64 @H5Oopen(i64 noundef %29, ptr noundef %30, i64 noundef 0)
  store i64 %31, ptr %13, align 8, !tbaa !3
  %32 = icmp slt i64 %31, 0
  br i1 %32, label %33, label %34

33:                                               ; preds = %28
  store i32 -1, ptr %5, align 4
  store i32 1, ptr %16, align 4
  br label %130

34:                                               ; preds = %28
  %35 = load i8, ptr @H5_libinit_g, align 1, !tbaa !16, !range !18, !noundef !19
  %36 = trunc i8 %35 to i1
  br i1 %36, label %41, label %37

37:                                               ; preds = %34
  %38 = load i8, ptr @H5_libterm_g, align 1, !tbaa !16, !range !18, !noundef !19
  %39 = trunc i8 %38 to i1
  %40 = xor i1 %39, true
  br label %41

41:                                               ; preds = %37, %34
  %42 = phi i1 [ false, %34 ], [ %40, %37 ]
  %43 = xor i1 %42, true
  %44 = xor i1 %43, true
  %45 = zext i1 %44 to i32
  %46 = sext i32 %45 to i64
  %47 = call i64 @llvm.expect.i64(i64 %46, i64 0)
  %48 = icmp ne i64 %47, 0
  br i1 %48, label %49, label %51

49:                                               ; preds = %41
  %50 = call i32 @H5open()
  br label %52

51:                                               ; preds = %41
  br label %52

52:                                               ; preds = %51, %49
  %53 = load i64, ptr @H5T_C_S1_g, align 8, !tbaa !3
  %54 = call i64 @H5Tcopy(i64 noundef %53)
  store i64 %54, ptr %10, align 8, !tbaa !3
  %55 = icmp slt i64 %54, 0
  br i1 %55, label %56, label %57

56:                                               ; preds = %52
  br label %127

57:                                               ; preds = %52
  %58 = load ptr, ptr %9, align 8, !tbaa !7
  %59 = call i64 @strlen(ptr noundef %58) #12
  %60 = add i64 %59, 1
  store i64 %60, ptr %15, align 8, !tbaa !3
  %61 = load i64, ptr %10, align 8, !tbaa !3
  %62 = load i64, ptr %15, align 8, !tbaa !3
  %63 = call i32 @H5Tset_size(i64 noundef %61, i64 noundef %62)
  %64 = icmp slt i32 %63, 0
  br i1 %64, label %65, label %66

65:                                               ; preds = %57
  br label %127

66:                                               ; preds = %57
  %67 = load i64, ptr %10, align 8, !tbaa !3
  %68 = call i32 @H5Tset_strpad(i64 noundef %67, i32 noundef 0)
  %69 = icmp slt i32 %68, 0
  br i1 %69, label %70, label %71

70:                                               ; preds = %66
  br label %127

71:                                               ; preds = %66
  %72 = call i64 @H5Screate(i32 noundef 0)
  store i64 %72, ptr %11, align 8, !tbaa !3
  %73 = icmp slt i64 %72, 0
  br i1 %73, label %74, label %75

74:                                               ; preds = %71
  br label %127

75:                                               ; preds = %71
  %76 = load i64, ptr %13, align 8, !tbaa !3
  %77 = load ptr, ptr %8, align 8, !tbaa !7
  %78 = call i32 @H5Aexists(i64 noundef %76, ptr noundef %77)
  store i32 %78, ptr %14, align 4, !tbaa !10
  %79 = icmp slt i32 %78, 0
  br i1 %79, label %80, label %81

80:                                               ; preds = %75
  br label %127

81:                                               ; preds = %75
  %82 = load i32, ptr %14, align 4, !tbaa !10
  %83 = icmp sgt i32 %82, 0
  br i1 %83, label %84, label %91

84:                                               ; preds = %81
  %85 = load i64, ptr %13, align 8, !tbaa !3
  %86 = load ptr, ptr %8, align 8, !tbaa !7
  %87 = call i32 @H5Adelete(i64 noundef %85, ptr noundef %86)
  %88 = icmp slt i32 %87, 0
  br i1 %88, label %89, label %90

89:                                               ; preds = %84
  br label %127

90:                                               ; preds = %84
  br label %91

91:                                               ; preds = %90, %81
  %92 = load i64, ptr %13, align 8, !tbaa !3
  %93 = load ptr, ptr %8, align 8, !tbaa !7
  %94 = load i64, ptr %10, align 8, !tbaa !3
  %95 = load i64, ptr %11, align 8, !tbaa !3
  %96 = call i64 @H5Acreate2(i64 noundef %92, ptr noundef %93, i64 noundef %94, i64 noundef %95, i64 noundef 0, i64 noundef 0)
  store i64 %96, ptr %12, align 8, !tbaa !3
  %97 = icmp slt i64 %96, 0
  br i1 %97, label %98, label %99

98:                                               ; preds = %91
  br label %127

99:                                               ; preds = %91
  %100 = load i64, ptr %12, align 8, !tbaa !3
  %101 = load i64, ptr %10, align 8, !tbaa !3
  %102 = load ptr, ptr %9, align 8, !tbaa !7
  %103 = call i32 @H5Awrite(i64 noundef %100, i64 noundef %101, ptr noundef %102)
  %104 = icmp slt i32 %103, 0
  br i1 %104, label %105, label %106

105:                                              ; preds = %99
  br label %127

106:                                              ; preds = %99
  %107 = load i64, ptr %12, align 8, !tbaa !3
  %108 = call i32 @H5Aclose(i64 noundef %107)
  %109 = icmp slt i32 %108, 0
  br i1 %109, label %110, label %111

110:                                              ; preds = %106
  br label %127

111:                                              ; preds = %106
  %112 = load i64, ptr %11, align 8, !tbaa !3
  %113 = call i32 @H5Sclose(i64 noundef %112)
  %114 = icmp slt i32 %113, 0
  br i1 %114, label %115, label %116

115:                                              ; preds = %111
  br label %127

116:                                              ; preds = %111
  %117 = load i64, ptr %10, align 8, !tbaa !3
  %118 = call i32 @H5Tclose(i64 noundef %117)
  %119 = icmp slt i32 %118, 0
  br i1 %119, label %120, label %121

120:                                              ; preds = %116
  br label %127

121:                                              ; preds = %116
  %122 = load i64, ptr %13, align 8, !tbaa !3
  %123 = call i32 @H5Oclose(i64 noundef %122)
  %124 = icmp slt i32 %123, 0
  br i1 %124, label %125, label %126

125:                                              ; preds = %121
  store i32 -1, ptr %5, align 4
  store i32 1, ptr %16, align 4
  br label %130

126:                                              ; preds = %121
  store i32 0, ptr %5, align 4
  store i32 1, ptr %16, align 4
  br label %130

127:                                              ; preds = %120, %115, %110, %105, %98, %89, %80, %74, %70, %65, %56
  %128 = load i64, ptr %13, align 8, !tbaa !3
  %129 = call i32 @H5Oclose(i64 noundef %128)
  store i32 -1, ptr %5, align 4
  store i32 1, ptr %16, align 4
  br label %130

130:                                              ; preds = %127, %126, %125, %33, %27, %23, %19
  call void @llvm.lifetime.end.p0(i64 8, ptr %15) #11
  call void @llvm.lifetime.end.p0(i64 4, ptr %14) #11
  call void @llvm.lifetime.end.p0(i64 8, ptr %13) #11
  call void @llvm.lifetime.end.p0(i64 8, ptr %12) #11
  call void @llvm.lifetime.end.p0(i64 8, ptr %11) #11
  call void @llvm.lifetime.end.p0(i64 8, ptr %10) #11
  %131 = load i32, ptr %5, align 4
  ret i32 %131
}