; Function Attrs: nounwind uwtable
define range(i32 -1, 1) i32 @H5LTset_attribute_string(i64 noundef %0, ptr noundef %1, ptr noundef %2, ptr noundef %3) local_unnamed_addr #0 {
  %5 = icmp eq ptr %1, null
  %6 = icmp eq ptr %2, null
  %or.cond = or i1 %5, %6
  %7 = icmp eq ptr %3, null
  %or.cond34 = or i1 %or.cond, %7
  br i1 %or.cond34, label %60, label %8

8:                                                ; preds = %4
  %9 = tail call i64 @H5Oopen(i64 noundef %0, ptr noundef nonnull %1, i64 noundef 0) #20
  %10 = icmp slt i64 %9, 0
  br i1 %10, label %60, label %11

11:                                               ; preds = %8
  %12 = load i8, ptr @H5_libinit_g, align 1, !tbaa !10, !range !12, !noundef !13
  %13 = trunc nuw i8 %12 to i1
  %14 = load i8, ptr @H5_libterm_g, align 1, !range !12
  %15 = trunc nuw i8 %14 to i1
  %16 = select i1 %13, i1 true, i1 %15
  br i1 %16, label %19, label %17, !prof !14

17:                                               ; preds = %11
  %18 = tail call i32 @H5open() #20
  br label %19

19:                                               ; preds = %11, %17
  %20 = load i64, ptr @H5T_C_S1_g, align 8, !tbaa !15
  %21 = tail call i64 @H5Tcopy(i64 noundef %20) #20
  %22 = icmp slt i64 %21, 0
  br i1 %22, label %58, label %23

23:                                               ; preds = %19
  %24 = tail call i64 @strlen(ptr noundef nonnull dereferenceable(1) %3) #21
  %25 = add i64 %24, 1
  %26 = tail call i32 @H5Tset_size(i64 noundef %21, i64 noundef %25) #20
  %27 = icmp slt i32 %26, 0
  br i1 %27, label %58, label %28

28:                                               ; preds = %23
  %29 = tail call i32 @H5Tset_strpad(i64 noundef %21, i32 noundef 0) #20
  %30 = icmp slt i32 %29, 0
  br i1 %30, label %58, label %31

31:                                               ; preds = %28
  %32 = tail call i64 @H5Screate(i32 noundef 0) #20
  %33 = icmp slt i64 %32, 0
  br i1 %33, label %58, label %34

34:                                               ; preds = %31
  %35 = tail call i32 @H5Aexists(i64 noundef %9, ptr noundef nonnull %2) #20
  %36 = icmp slt i32 %35, 0
  br i1 %36, label %58, label %37

37:                                               ; preds = %34
  %.not = icmp eq i32 %35, 0
  br i1 %.not, label %41, label %38

38:                                               ; preds = %37
  %39 = tail call i32 @H5Adelete(i64 noundef %9, ptr noundef nonnull %2) #20
  %40 = icmp slt i32 %39, 0
  br i1 %40, label %58, label %41

41:                                               ; preds = %38, %37
  %42 = tail call i64 @H5Acreate2(i64 noundef %9, ptr noundef nonnull %2, i64 noundef %21, i64 noundef %32, i64 noundef 0, i64 noundef 0) #20
  %43 = icmp slt i64 %42, 0
  br i1 %43, label %58, label %44

44:                                               ; preds = %41
  %45 = tail call i32 @H5Awrite(i64 noundef %42, i64 noundef %21, ptr noundef nonnull %3) #20
  %46 = icmp slt i32 %45, 0
  br i1 %46, label %58, label %47

47:                                               ; preds = %44
  %48 = tail call i32 @H5Aclose(i64 noundef %42) #20
  %49 = icmp slt i32 %48, 0
  br i1 %49, label %58, label %50

50:                                               ; preds = %47
  %51 = tail call i32 @H5Sclose(i64 noundef %32) #20
  %52 = icmp slt i32 %51, 0
  br i1 %52, label %58, label %53

53:                                               ; preds = %50
  %54 = tail call i32 @H5Tclose(i64 noundef %21) #20
  %55 = icmp slt i32 %54, 0
  br i1 %55, label %58, label %56

56:                                               ; preds = %53
  %57 = tail call i32 @H5Oclose(i64 noundef %9) #20
  %.lobit = ashr i32 %57, 31
  br label %60

58:                                               ; preds = %53, %50, %47, %44, %41, %38, %34, %31, %28, %23, %19
  %59 = tail call i32 @H5Oclose(i64 noundef %9) #20
  br label %60

60:                                               ; preds = %56, %8, %4, %58
  %.0 = phi i32 [ -1, %58 ], [ -1, %4 ], [ -1, %8 ], [ %.lobit, %56 ]
  ret i32 %.0
}